; Function Attrs: nounwind sspstrong uwtable
define internal zeroext i1 @vhost_user_gpu_guest_notifier_pending(ptr noundef %vdev, i32 noundef %idx) #0 {
entry:
  %call.i = tail call ptr @object_dynamic_cast_assert(ptr noundef %vdev, ptr noundef nonnull @.str, ptr noundef nonnull @.str.4, i32 noundef 39, ptr noundef nonnull @__func__.VHOST_USER_GPU) #7
  %cmp = icmp eq i32 %idx, -1
  br i1 %cmp, label %return, label %if.end

if.end:                                           ; preds = %entry
  %vhost = getelementptr inbounds nuw i8, ptr %call.i, i64 2928
  %0 = load ptr, ptr %vhost, align 16
  %dev = getelementptr inbounds nuw i8, ptr %0, i64 128
  %call1 = tail call zeroext i1 @vhost_virtqueue_pending(ptr noundef nonnull %dev, i32 noundef %idx) #7
  br label %return

return:                                           ; preds = %entry, %if.end
  %retval.0 = phi i1 [ %call1, %if.end ], [ false, %entry ]
  ret i1 %retval.0
}